target datalayout = "e-m:e-p270:32:32-p271:32:32-p272:64:64-i64:64-i128:128-f80:128-n8:16:32:64-S128"
target triple = "x86_64-pc-linux-gnu"

%struct.cmac_ctx_st = type { %struct.evp_cipher_ctx_st, [16 x i8], [16 x i8], [16 x i8], i32 }
%struct.evp_cipher_ctx_st = type { ptr, ptr, ptr, i32, i32, i32, [16 x i8], [16 x i8], [32 x i8], i32, i32, i32, i32, [32 x i8] }

@kZeroIV = internal constant [16 x i8] zeroinitializer, align 16

; Function Attrs: nounwind uwtable
define internal void @binary_field_mul_x(ptr noundef %0, ptr noundef %1) #0 {
  %3 = alloca ptr, align 8
  %4 = alloca ptr, align 8
  %5 = alloca i32, align 4
  %6 = alloca i8, align 1
  store ptr %0, ptr %3, align 8, !tbaa !6
  store ptr %1, ptr %4, align 8, !tbaa !6
  call void @llvm.lifetime.start.p0(i64 4, ptr %5) #7
  store i32 0, ptr %5, align 4, !tbaa !15
  br label %7

7:                                                ; preds = %32, %2
  %8 = load i32, ptr %5, align 4, !tbaa !15
  %9 = icmp ult i32 %8, 15
  br i1 %9, label %10, label %35

10:                                               ; preds = %7
  %11 = load ptr, ptr %4, align 8, !tbaa !6
  %12 = load i32, ptr %5, align 4, !tbaa !15
  %13 = zext i32 %12 to i64
  %14 = getelementptr inbounds nuw i8, ptr %11, i64 %13
  %15 = load i8, ptr %14, align 1, !tbaa !29
  %16 = zext i8 %15 to i32
  %17 = shl i32 %16, 1
  %18 = load ptr, ptr %4, align 8, !tbaa !6
  %19 = load i32, ptr %5, align 4, !tbaa !15
  %20 = add i32 %19, 1
  %21 = zext i32 %20 to i64
  %22 = getelementptr inbounds nuw i8, ptr %18, i64 %21
  %23 = load i8, ptr %22, align 1, !tbaa !29
  %24 = zext i8 %23 to i32
  %25 = ashr i32 %24, 7
  %26 = or i32 %17, %25
  %27 = trunc i32 %26 to i8
  %28 = load ptr, ptr %3, align 8, !tbaa !6
  %29 = load i32, ptr %5, align 4, !tbaa !15
  %30 = zext i32 %29 to i64
  %31 = getelementptr inbounds nuw i8, ptr %28, i64 %30
  store i8 %27, ptr %31, align 1, !tbaa !29
  br label %32

32:                                               ; preds = %10
  %33 = load i32, ptr %5, align 4, !tbaa !15
  %34 = add i32 %33, 1
  store i32 %34, ptr %5, align 4, !tbaa !15
  br label %7, !llvm.loop !31

35:                                               ; preds = %7
  call void @llvm.lifetime.start.p0(i64 1, ptr %6) #7
  %36 = load ptr, ptr %4, align 8, !tbaa !6
  %37 = getelementptr inbounds i8, ptr %36, i64 0
  %38 = load i8, ptr %37, align 1, !tbaa !29
  %39 = zext i8 %38 to i32
  %40 = ashr i32 %39, 7
  %41 = trunc i32 %40 to i8
  store i8 %41, ptr %6, align 1, !tbaa !29
  %42 = load ptr, ptr %4, align 8, !tbaa !6
  %43 = load i32, ptr %5, align 4, !tbaa !15
  %44 = zext i32 %43 to i64
  %45 = getelementptr inbounds nuw i8, ptr %42, i64 %44
  %46 = load i8, ptr %45, align 1, !tbaa !29
  %47 = zext i8 %46 to i32
  %48 = shl i32 %47, 1
  %49 = load i8, ptr %6, align 1, !tbaa !29
  %50 = zext i8 %49 to i32
  %51 = sub nsw i32 0, %50
  %52 = and i32 %51, 135
  %53 = xor i32 %48, %52
  %54 = trunc i32 %53 to i8
  %55 = load ptr, ptr %3, align 8, !tbaa !6
  %56 = load i32, ptr %5, align 4, !tbaa !15
  %57 = zext i32 %56 to i64
  %58 = getelementptr inbounds nuw i8, ptr %55, i64 %57
  store i8 %54, ptr %58, align 1, !tbaa !29
  call void @llvm.lifetime.end.p0(i64 1, ptr %6) #7
  call void @llvm.lifetime.end.p0(i64 4, ptr %5) #7
  ret void
}

; Function Attrs: nounwind uwtable
define hidden i32 @CMAC_Init(ptr noundef %0, ptr noundef %1, i64 noundef %2, ptr noundef %3, ptr noundef %4) #0 {
  %6 = alloca i32, align 4
  %7 = alloca ptr, align 8
  %8 = alloca ptr, align 8
  %9 = alloca i64, align 8
  %10 = alloca ptr, align 8
  %11 = alloca ptr, align 8
  %12 = alloca [16 x i8], align 16
  %13 = alloca i32, align 4
  store ptr %0, ptr %7, align 8, !tbaa !17
  store ptr %1, ptr %8, align 8, !tbaa !19
  store i64 %2, ptr %9, align 8, !tbaa !11
  store ptr %3, ptr %10, align 8, !tbaa !13
  store ptr %4, ptr %11, align 8, !tbaa !20
  call void @llvm.lifetime.start.p0(i64 16, ptr %12) #7
  %14 = load ptr, ptr %10, align 8, !tbaa !13
  %15 = call i32 @EVP_CIPHER_block_size(ptr noundef %14)
  %16 = icmp ne i32 %15, 16
  br i1 %16, label %41, label %17

17:                                               ; preds = %5
  %18 = load ptr, ptr %10, align 8, !tbaa !13
  %19 = call i32 @EVP_CIPHER_key_length(ptr noundef %18)
  %20 = zext i32 %19 to i64
  %21 = load i64, ptr %9, align 8, !tbaa !11
  %22 = icmp ne i64 %20, %21
  br i1 %22, label %41, label %23

23:                                               ; preds = %17
  %24 = load ptr, ptr %7, align 8, !tbaa !17
  %25 = getelementptr inbounds nuw %struct.cmac_ctx_st, ptr %24, i32 0, i32 0
  %26 = load ptr, ptr %10, align 8, !tbaa !13
  %27 = load ptr, ptr %8, align 8, !tbaa !19
  %28 = call i32 @EVP_EncryptInit_ex(ptr noundef %25, ptr noundef %26, ptr noundef null, ptr noundef %27, ptr noundef @kZeroIV)
  %29 = icmp ne i32 %28, 0
  br i1 %29, label %30, label %41

30:                                               ; preds = %23
  %31 = load ptr, ptr %7, align 8, !tbaa !17
  %32 = getelementptr inbounds nuw %struct.cmac_ctx_st, ptr %31, i32 0, i32 0
  %33 = getelementptr inbounds [16 x i8], ptr %12, i64 0, i64 0
  %34 = call i32 @EVP_Cipher(ptr noundef %32, ptr noundef %33, ptr noundef @kZeroIV, i64 noundef 16)
  %35 = icmp ne i32 %34, 0
  br i1 %35, label %36, label %41

36:                                               ; preds = %30
  %37 = load ptr, ptr %7, align 8, !tbaa !17
  %38 = getelementptr inbounds nuw %struct.cmac_ctx_st, ptr %37, i32 0, i32 0
  %39 = call i32 @EVP_EncryptInit_ex(ptr noundef %38, ptr noundef null, ptr noundef null, ptr noundef null, ptr noundef @kZeroIV)
  %40 = icmp ne i32 %39, 0
  br i1 %40, label %42, label %41

41:                                               ; preds = %36, %30, %23, %17, %5
  store i32 0, ptr %6, align 4
  store i32 1, ptr %13, align 4
  br label %55

42:                                               ; preds = %36
  %43 = load ptr, ptr %7, align 8, !tbaa !17
  %44 = getelementptr inbounds nuw %struct.cmac_ctx_st, ptr %43, i32 0, i32 1
  %45 = getelementptr inbounds [16 x i8], ptr %44, i64 0, i64 0
  %46 = getelementptr inbounds [16 x i8], ptr %12, i64 0, i64 0
  call void @binary_field_mul_x(ptr noundef %45, ptr noundef %46)
  %47 = load ptr, ptr %7, align 8, !tbaa !17
  %48 = getelementptr inbounds nuw %struct.cmac_ctx_st, ptr %47, i32 0, i32 2
  %49 = getelementptr inbounds [16 x i8], ptr %48, i64 0, i64 0
  %50 = load ptr, ptr %7, align 8, !tbaa !17
  %51 = getelementptr inbounds nuw %struct.cmac_ctx_st, ptr %50, i32 0, i32 1
  %52 = getelementptr inbounds [16 x i8], ptr %51, i64 0, i64 0
  call void @binary_field_mul_x(ptr noundef %49, ptr noundef %52)
  %53 = load ptr, ptr %7, align 8, !tbaa !17
  %54 = getelementptr inbounds nuw %struct.cmac_ctx_st, ptr %53, i32 0, i32 4
  store i32 0, ptr %54, align 8, !tbaa !22
  store i32 1, ptr %6, align 4
  store i32 1, ptr %13, align 4
  br label %55

55:                                               ; preds = %42, %41
  call void @llvm.lifetime.end.p0(i64 16, ptr %12) #7
  %56 = load i32, ptr %6, align 4
  ret i32 %56
}