; Function Attrs: nounwind uwtable
define hidden range(i32 0, 2) i32 @CMAC_Init(ptr noundef %0, ptr noundef %1, i64 noundef %2, ptr noundef %3, ptr readnone captures(none) %4) local_unnamed_addr #0 {
  %6 = alloca [16 x i8], align 16
  call void @llvm.lifetime.start.p0(i64 16, ptr nonnull %6) #8
  %7 = tail call i32 @EVP_CIPHER_block_size(ptr noundef %3) #8
  %.not = icmp eq i32 %7, 16
  br i1 %.not, label %8, label %43

8:                                                ; preds = %5
  %9 = tail call i32 @EVP_CIPHER_key_length(ptr noundef %3) #8
  %10 = zext i32 %9 to i64
  %.not12 = icmp eq i64 %2, %10
  br i1 %.not12, label %11, label %43

11:                                               ; preds = %8
  %12 = tail call i32 @EVP_EncryptInit_ex(ptr noundef %0, ptr noundef %3, ptr noundef null, ptr noundef %1, ptr noundef nonnull @kZeroIV) #8
  %.not13 = icmp eq i32 %12, 0
  br i1 %.not13, label %43, label %13

13:                                               ; preds = %11
  %14 = call i32 @EVP_Cipher(ptr noundef %0, ptr noundef nonnull %6, ptr noundef nonnull @kZeroIV, i64 noundef 16) #8
  %.not14 = icmp eq i32 %14, 0
  br i1 %.not14, label %43, label %15

15:                                               ; preds = %13
  %16 = call i32 @EVP_EncryptInit_ex(ptr noundef %0, ptr noundef null, ptr noundef null, ptr noundef null, ptr noundef nonnull @kZeroIV) #8
  %.not15 = icmp eq i32 %16, 0
  br i1 %.not15, label %43, label %17

17:                                               ; preds = %15
  %18 = getelementptr inbounds nuw i8, ptr %0, i64 152
  %.pre = load i8, ptr %6, align 16, !tbaa !16
  br label %19

19:                                               ; preds = %19, %17
  %20 = phi i8 [ %.pre, %17 ], [ %22, %19 ]
  %indvars.iv.i = phi i64 [ 0, %17 ], [ %indvars.iv.next.i, %19 ]
  %indvars.iv.next.i = add nuw nsw i64 %indvars.iv.i, 1
  %21 = getelementptr inbounds nuw i8, ptr %6, i64 %indvars.iv.next.i
  %22 = load i8, ptr %21, align 1, !tbaa !16
  %23 = call i8 @llvm.fshl.i8(i8 %20, i8 %22, i8 1)
  %24 = getelementptr inbounds nuw i8, ptr %18, i64 %indvars.iv.i
  store i8 %23, ptr %24, align 1, !tbaa !16
  %exitcond.not.i = icmp eq i64 %indvars.iv.next.i, 15
  br i1 %exitcond.not.i, label %binary_field_mul_x.exit, label %19, !llvm.loop !18

binary_field_mul_x.exit:                          ; preds = %19
  %25 = getelementptr inbounds nuw i8, ptr %6, i64 15
  %26 = load i8, ptr %25, align 1, !tbaa !16
  %27 = shl i8 %26, 1
  %isneg.i = icmp slt i8 %.pre, 0
  %28 = select i1 %isneg.i, i8 -121, i8 0
  %29 = xor i8 %27, %28
  %30 = getelementptr inbounds nuw i8, ptr %0, i64 167
  store i8 %29, ptr %30, align 1, !tbaa !16
  %31 = getelementptr inbounds nuw i8, ptr %0, i64 168
  %.pre21 = load i8, ptr %18, align 1, !tbaa !16
  br label %32

32:                                               ; preds = %32, %binary_field_mul_x.exit
  %33 = phi i8 [ %.pre21, %binary_field_mul_x.exit ], [ %35, %32 ]
  %indvars.iv.i16 = phi i64 [ 0, %binary_field_mul_x.exit ], [ %indvars.iv.next.i17, %32 ]
  %indvars.iv.next.i17 = add nuw nsw i64 %indvars.iv.i16, 1
  %34 = getelementptr inbounds nuw i8, ptr %18, i64 %indvars.iv.next.i17
  %35 = load i8, ptr %34, align 1, !tbaa !16
  %36 = call i8 @llvm.fshl.i8(i8 %33, i8 %35, i8 1)
  %37 = getelementptr inbounds nuw i8, ptr %31, i64 %indvars.iv.i16
  store i8 %36, ptr %37, align 1, !tbaa !16
  %exitcond.not.i18 = icmp eq i64 %indvars.iv.next.i17, 15
  br i1 %exitcond.not.i18, label %binary_field_mul_x.exit20, label %32, !llvm.loop !18

binary_field_mul_x.exit20:                        ; preds = %32
  %38 = shl i8 %29, 1
  %isneg.i19 = icmp slt i8 %.pre21, 0
  %39 = select i1 %isneg.i19, i8 -121, i8 0
  %40 = xor i8 %38, %39
  %41 = getelementptr inbounds nuw i8, ptr %0, i64 183
  store i8 %40, ptr %41, align 1, !tbaa !16
  %42 = getelementptr inbounds nuw i8, ptr %0, i64 200
  store i32 0, ptr %42, align 8, !tbaa !6
  br label %43

43:                                               ; preds = %5, %8, %11, %13, %15, %binary_field_mul_x.exit20
  %.0 = phi i32 [ 1, %binary_field_mul_x.exit20 ], [ 0, %15 ], [ 0, %13 ], [ 0, %11 ], [ 0, %8 ], [ 0, %5 ]
  call void @llvm.lifetime.end.p0(i64 16, ptr nonnull %6) #8
  ret i32 %.0
}